target datalayout = "e-m:e-p270:32:32-p271:32:32-p272:64:64-i64:64-i128:128-f80:128-n8:16:32:64-S128"
target triple = "x86_64-pc-linux-gnu"

%struct.algo_time_t = type { i32, i32 }

; Function Attrs: nounwind uwtable
define internal i32 @ERR_isError(i64 noundef %0) #0 {
  %2 = alloca i64, align 8
  store i64 %0, ptr %2, align 8, !tbaa !3
  %3 = load i64, ptr %2, align 8, !tbaa !3
  %4 = icmp ugt i64 %3, -120
  %5 = zext i1 %4 to i32
  ret i32 %5
}

; Function Attrs: nounwind uwtable
define i32 @HUFv07_isError(i64 noundef %0) #0 {
  %2 = alloca i64, align 8
  store i64 %0, ptr %2, align 8, !tbaa !3
  %3 = load i64, ptr %2, align 8, !tbaa !3
  %4 = call i32 @ERR_isError(i64 noundef %3)
  ret i32 %4
}

; Function Attrs: nounwind uwtable
define i64 @HUFv07_decompress4X2_DCtx(ptr noundef %0, ptr noundef %1, i64 noundef %2, ptr noundef %3, i64 noundef %4) #0 {
  %6 = alloca i64, align 8
  %7 = alloca ptr, align 8
  %8 = alloca ptr, align 8
  %9 = alloca i64, align 8
  %10 = alloca ptr, align 8
  %11 = alloca i64, align 8
  %12 = alloca ptr, align 8
  %13 = alloca i64, align 8
  %14 = alloca i32, align 4
  store ptr %0, ptr %7, align 8, !tbaa !10
  store ptr %1, ptr %8, align 8, !tbaa !12
  store i64 %2, ptr %9, align 8, !tbaa !3
  store ptr %3, ptr %10, align 8, !tbaa !12
  store i64 %4, ptr %11, align 8, !tbaa !3
  call void @llvm.lifetime.start.p0(i64 8, ptr %12) #11
  %15 = load ptr, ptr %10, align 8, !tbaa !12
  store ptr %15, ptr %12, align 8, !tbaa !13
  call void @llvm.lifetime.start.p0(i64 8, ptr %13) #11
  %16 = load ptr, ptr %7, align 8, !tbaa !10
  %17 = load ptr, ptr %10, align 8, !tbaa !12
  %18 = load i64, ptr %11, align 8, !tbaa !3
  %19 = call i64 @HUFv07_readDTableX2(ptr noundef %16, ptr noundef %17, i64 noundef %18)
  store i64 %19, ptr %13, align 8, !tbaa !3
  %20 = load i64, ptr %13, align 8, !tbaa !3
  %21 = call i32 @HUFv07_isError(i64 noundef %20)
  %22 = icmp ne i32 %21, 0
  br i1 %22, label %23, label %25

23:                                               ; preds = %5
  %24 = load i64, ptr %13, align 8, !tbaa !3
  store i64 %24, ptr %6, align 8
  store i32 1, ptr %14, align 4
  br label %43

25:                                               ; preds = %5
  %26 = load i64, ptr %13, align 8, !tbaa !3
  %27 = load i64, ptr %11, align 8, !tbaa !3
  %28 = icmp uge i64 %26, %27
  br i1 %28, label %29, label %30

29:                                               ; preds = %25
  store i64 -72, ptr %6, align 8
  store i32 1, ptr %14, align 4
  br label %43

30:                                               ; preds = %25
  %31 = load i64, ptr %13, align 8, !tbaa !3
  %32 = load ptr, ptr %12, align 8, !tbaa !13
  %33 = getelementptr inbounds nuw i8, ptr %32, i64 %31
  store ptr %33, ptr %12, align 8, !tbaa !13
  %34 = load i64, ptr %13, align 8, !tbaa !3
  %35 = load i64, ptr %11, align 8, !tbaa !3
  %36 = sub i64 %35, %34
  store i64 %36, ptr %11, align 8, !tbaa !3
  %37 = load ptr, ptr %8, align 8, !tbaa !12
  %38 = load i64, ptr %9, align 8, !tbaa !3
  %39 = load ptr, ptr %12, align 8, !tbaa !13
  %40 = load i64, ptr %11, align 8, !tbaa !3
  %41 = load ptr, ptr %7, align 8, !tbaa !10
  %42 = call i64 @HUFv07_decompress4X2_usingDTable_internal(ptr noundef %37, i64 noundef %38, ptr noundef %39, i64 noundef %40, ptr noundef %41)
  store i64 %42, ptr %6, align 8
  store i32 1, ptr %14, align 4
  br label %43

43:                                               ; preds = %30, %29, %23
  call void @llvm.lifetime.end.p0(i64 8, ptr %13) #11
  call void @llvm.lifetime.end.p0(i64 8, ptr %12) #11
  %44 = load i64, ptr %6, align 8
  ret i64 %44
}

; Function Attrs: nounwind uwtable
define i64 @HUFv07_decompress4X4_DCtx(ptr noundef %0, ptr noundef %1, i64 noundef %2, ptr noundef %3, i64 noundef %4) #0 {
  %6 = alloca i64, align 8
  %7 = alloca ptr, align 8
  %8 = alloca ptr, align 8
  %9 = alloca i64, align 8
  %10 = alloca ptr, align 8
  %11 = alloca i64, align 8
  %12 = alloca ptr, align 8
  %13 = alloca i64, align 8
  %14 = alloca i32, align 4
  store ptr %0, ptr %7, align 8, !tbaa !10
  store ptr %1, ptr %8, align 8, !tbaa !12
  store i64 %2, ptr %9, align 8, !tbaa !3
  store ptr %3, ptr %10, align 8, !tbaa !12
  store i64 %4, ptr %11, align 8, !tbaa !3
  call void @llvm.lifetime.start.p0(i64 8, ptr %12) #11
  %15 = load ptr, ptr %10, align 8, !tbaa !12
  store ptr %15, ptr %12, align 8, !tbaa !13
  call void @llvm.lifetime.start.p0(i64 8, ptr %13) #11
  %16 = load ptr, ptr %7, align 8, !tbaa !10
  %17 = load ptr, ptr %10, align 8, !tbaa !12
  %18 = load i64, ptr %11, align 8, !tbaa !3
  %19 = call i64 @HUFv07_readDTableX4(ptr noundef %16, ptr noundef %17, i64 noundef %18)
  store i64 %19, ptr %13, align 8, !tbaa !3
  %20 = load i64, ptr %13, align 8, !tbaa !3
  %21 = call i32 @HUFv07_isError(i64 noundef %20)
  %22 = icmp ne i32 %21, 0
  br i1 %22, label %23, label %25

23:                                               ; preds = %5
  %24 = load i64, ptr %13, align 8, !tbaa !3
  store i64 %24, ptr %6, align 8
  store i32 1, ptr %14, align 4
  br label %43

25:                                               ; preds = %5
  %26 = load i64, ptr %13, align 8, !tbaa !3
  %27 = load i64, ptr %11, align 8, !tbaa !3
  %28 = icmp uge i64 %26, %27
  br i1 %28, label %29, label %30

29:                                               ; preds = %25
  store i64 -72, ptr %6, align 8
  store i32 1, ptr %14, align 4
  br label %43

30:                                               ; preds = %25
  %31 = load i64, ptr %13, align 8, !tbaa !3
  %32 = load ptr, ptr %12, align 8, !tbaa !13
  %33 = getelementptr inbounds nuw i8, ptr %32, i64 %31
  store ptr %33, ptr %12, align 8, !tbaa !13
  %34 = load i64, ptr %13, align 8, !tbaa !3
  %35 = load i64, ptr %11, align 8, !tbaa !3
  %36 = sub i64 %35, %34
  store i64 %36, ptr %11, align 8, !tbaa !3
  %37 = load ptr, ptr %8, align 8, !tbaa !12
  %38 = load i64, ptr %9, align 8, !tbaa !3
  %39 = load ptr, ptr %12, align 8, !tbaa !13
  %40 = load i64, ptr %11, align 8, !tbaa !3
  %41 = load ptr, ptr %7, align 8, !tbaa !10
  %42 = call i64 @HUFv07_decompress4X4_usingDTable_internal(ptr noundef %37, i64 noundef %38, ptr noundef %39, i64 noundef %40, ptr noundef %41)
  store i64 %42, ptr %6, align 8
  store i32 1, ptr %14, align 4
  br label %43

43:                                               ; preds = %30, %29, %23
  call void @llvm.lifetime.end.p0(i64 8, ptr %13) #11
  call void @llvm.lifetime.end.p0(i64 8, ptr %12) #11
  %44 = load i64, ptr %6, align 8
  ret i64 %44
}

; Function Attrs: nounwind uwtable
define i32 @HUFv07_selectDecoder(i64 noundef %0, i64 noundef %1) #0 {
  %3 = alloca i64, align 8
  %4 = alloca i64, align 8
  %5 = alloca i32, align 4
  %6 = alloca i32, align 4
  %7 = alloca i32, align 4
  %8 = alloca i32, align 4
  store i64 %0, ptr %3, align 8, !tbaa !3
  store i64 %1, ptr %4, align 8, !tbaa !3
  call void @llvm.lifetime.start.p0(i64 4, ptr %5) #11
  %9 = load i64, ptr %4, align 8, !tbaa !3
  %10 = mul i64 %9, 16
  %11 = load i64, ptr %3, align 8, !tbaa !3
  %12 = udiv i64 %10, %11
  %13 = trunc i64 %12 to i32
  store i32 %13, ptr %5, align 4, !tbaa !15
  call void @llvm.lifetime.start.p0(i64 4, ptr %6) #11
  %14 = load i64, ptr %3, align 8, !tbaa !3
  %15 = lshr i64 %14, 8
  %16 = trunc i64 %15 to i32
  store i32 %16, ptr %6, align 4, !tbaa !15
  call void @llvm.lifetime.start.p0(i64 4, ptr %7) #11
  %17 = load i32, ptr %5, align 4, !tbaa !15
  %18 = zext i32 %17 to i64
  %19 = getelementptr inbounds nuw [16 x [3 x %struct.algo_time_t]], ptr @algoTime, i64 0, i64 %18
  %20 = getelementptr inbounds [3 x %struct.algo_time_t], ptr %19, i64 0, i64 0
  %21 = getelementptr inbounds nuw %struct.algo_time_t, ptr %20, i32 0, i32 0
  %22 = load i32, ptr %21, align 8, !tbaa !64
  %23 = load i32, ptr %5, align 4, !tbaa !15
  %24 = zext i32 %23 to i64
  %25 = getelementptr inbounds nuw [16 x [3 x %struct.algo_time_t]], ptr @algoTime, i64 0, i64 %24
  %26 = getelementptr inbounds [3 x %struct.algo_time_t], ptr %25, i64 0, i64 0
  %27 = getelementptr inbounds nuw %struct.algo_time_t, ptr %26, i32 0, i32 1
  %28 = load i32, ptr %27, align 4, !tbaa !66
  %29 = load i32, ptr %6, align 4, !tbaa !15
  %30 = mul i32 %28, %29
  %31 = add i32 %22, %30
  store i32 %31, ptr %7, align 4, !tbaa !15
  call void @llvm.lifetime.start.p0(i64 4, ptr %8) #11
  %32 = load i32, ptr %5, align 4, !tbaa !15
  %33 = zext i32 %32 to i64
  %34 = getelementptr inbounds nuw [16 x [3 x %struct.algo_time_t]], ptr @algoTime, i64 0, i64 %33
  %35 = getelementptr inbounds [3 x %struct.algo_time_t], ptr %34, i64 0, i64 1
  %36 = getelementptr inbounds nuw %struct.algo_time_t, ptr %35, i32 0, i32 0
  %37 = load i32, ptr %36, align 8, !tbaa !64
  %38 = load i32, ptr %5, align 4, !tbaa !15
  %39 = zext i32 %38 to i64
  %40 = getelementptr inbounds nuw [16 x [3 x %struct.algo_time_t]], ptr @algoTime, i64 0, i64 %39
  %41 = getelementptr inbounds [3 x %struct.algo_time_t], ptr %40, i64 0, i64 1
  %42 = getelementptr inbounds nuw %struct.algo_time_t, ptr %41, i32 0, i32 1
  %43 = load i32, ptr %42, align 4, !tbaa !66
  %44 = load i32, ptr %6, align 4, !tbaa !15
  %45 = mul i32 %43, %44
  %46 = add i32 %37, %45
  store i32 %46, ptr %8, align 4, !tbaa !15
  %47 = load i32, ptr %8, align 4, !tbaa !15
  %48 = lshr i32 %47, 3
  %49 = load i32, ptr %8, align 4, !tbaa !15
  %50 = add i32 %49, %48
  store i32 %50, ptr %8, align 4, !tbaa !15
  %51 = load i32, ptr %8, align 4, !tbaa !15
  %52 = load i32, ptr %7, align 4, !tbaa !15
  %53 = icmp ult i32 %51, %52
  %54 = zext i1 %53 to i32
  call void @llvm.lifetime.end.p0(i64 4, ptr %8) #11
  call void @llvm.lifetime.end.p0(i64 4, ptr %7) #11
  call void @llvm.lifetime.end.p0(i64 4, ptr %6) #11
  call void @llvm.lifetime.end.p0(i64 4, ptr %5) #11
  ret i32 %54
}

; Function Attrs: nounwind uwtable
define i64 @HUFv07_decompress4X_DCtx(ptr noundef %0, ptr noundef %1, i64 noundef %2, ptr noundef %3, i64 noundef %4) #0 {
  %6 = alloca i64, align 8
  %7 = alloca ptr, align 8
  %8 = alloca ptr, align 8
  %9 = alloca i64, align 8
  %10 = alloca ptr, align 8
  %11 = alloca i64, align 8
  %12 = alloca i32, align 4
  store ptr %0, ptr %7, align 8, !tbaa !10
  store ptr %1, ptr %8, align 8, !tbaa !12
  store i64 %2, ptr %9, align 8, !tbaa !3
  store ptr %3, ptr %10, align 8, !tbaa !12
  store i64 %4, ptr %11, align 8, !tbaa !3
  %13 = load i64, ptr %9, align 8, !tbaa !3
  %14 = icmp eq i64 %13, 0
  br i1 %14, label %15, label %16

15:                                               ; preds = %5
  store i64 -70, ptr %6, align 8
  br label %63

16:                                               ; preds = %5
  %17 = load i64, ptr %11, align 8, !tbaa !3
  %18 = load i64, ptr %9, align 8, !tbaa !3
  %19 = icmp ugt i64 %17, %18
  br i1 %19, label %20, label %21

20:                                               ; preds = %16
  store i64 -20, ptr %6, align 8
  br label %63

21:                                               ; preds = %16
  %22 = load i64, ptr %11, align 8, !tbaa !3
  %23 = load i64, ptr %9, align 8, !tbaa !3
  %24 = icmp eq i64 %22, %23
  br i1 %24, label %25, label %30

25:                                               ; preds = %21
  %26 = load ptr, ptr %8, align 8, !tbaa !12
  %27 = load ptr, ptr %10, align 8, !tbaa !12
  %28 = load i64, ptr %9, align 8, !tbaa !3
  call void @llvm.memcpy.p0.p0.i64(ptr align 1 %26, ptr align 1 %27, i64 %28, i1 false)
  %29 = load i64, ptr %9, align 8, !tbaa !3
  store i64 %29, ptr %6, align 8
  br label %63

30:                                               ; preds = %21
  %31 = load i64, ptr %11, align 8, !tbaa !3
  %32 = icmp eq i64 %31, 1
  br i1 %32, label %33, label %41

33:                                               ; preds = %30
  %34 = load ptr, ptr %8, align 8, !tbaa !12
  %35 = load ptr, ptr %10, align 8, !tbaa !12
  %36 = load i8, ptr %35, align 1, !tbaa !25
  %37 = zext i8 %36 to i32
  %38 = trunc i32 %37 to i8
  %39 = load i64, ptr %9, align 8, !tbaa !3
  call void @llvm.memset.p0.i64(ptr align 1 %34, i8 %38, i64 %39, i1 false)
  %40 = load i64, ptr %9, align 8, !tbaa !3
  store i64 %40, ptr %6, align 8
  br label %63

41:                                               ; preds = %30
  call void @llvm.lifetime.start.p0(i64 4, ptr %12) #11
  %42 = load i64, ptr %9, align 8, !tbaa !3
  %43 = load i64, ptr %11, align 8, !tbaa !3
  %44 = call i32 @HUFv07_selectDecoder(i64 noundef %42, i64 noundef %43)
  store i32 %44, ptr %12, align 4, !tbaa !15
  %45 = load i32, ptr %12, align 4, !tbaa !15
  %46 = icmp ne i32 %45, 0
  br i1 %46, label %47, label %54

47:                                               ; preds = %41
  %48 = load ptr, ptr %7, align 8, !tbaa !10
  %49 = load ptr, ptr %8, align 8, !tbaa !12
  %50 = load i64, ptr %9, align 8, !tbaa !3
  %51 = load ptr, ptr %10, align 8, !tbaa !12
  %52 = load i64, ptr %11, align 8, !tbaa !3
  %53 = call i64 @HUFv07_decompress4X4_DCtx(ptr noundef %48, ptr noundef %49, i64 noundef %50, ptr noundef %51, i64 noundef %52)
  br label %61

54:                                               ; preds = %41
  %55 = load ptr, ptr %7, align 8, !tbaa !10
  %56 = load ptr, ptr %8, align 8, !tbaa !12
  %57 = load i64, ptr %9, align 8, !tbaa !3
  %58 = load ptr, ptr %10, align 8, !tbaa !12
  %59 = load i64, ptr %11, align 8, !tbaa !3
  %60 = call i64 @HUFv07_decompress4X2_DCtx(ptr noundef %55, ptr noundef %56, i64 noundef %57, ptr noundef %58, i64 noundef %59)
  br label %61

61:                                               ; preds = %54, %47
  %62 = phi i64 [ %53, %47 ], [ %60, %54 ]
  store i64 %62, ptr %6, align 8
  call void @llvm.lifetime.end.p0(i64 4, ptr %12) #11
  br label %63

63:                                               ; preds = %61, %33, %25, %20, %15
  %64 = load i64, ptr %6, align 8
  ret i64 %64
}